target datalayout = "e-m:e-p270:32:32-p271:32:32-p272:64:64-i64:64-i128:128-f80:128-n8:16:32:64-S128"
target triple = "x86_64-pc-linux-gnu"

@hf_dplay_type_0f_id_to = internal global i32 0, align 4
@hf_dplay_type_0f_id = internal global i32 0, align 4
@hf_dplay_type_0f_data_size = internal global i32 0, align 4
@hf_dplay_type_0f_data_offset = internal global i32 0, align 4
@hf_dplay_type_0f_data = internal global i32 0, align 4

; Function Attrs: null_pointer_is_valid sspstrong uwtable
define internal i32 @dissect_type0f_message(ptr noundef %0, ptr noundef %1, i32 noundef %2) #0 {
  %4 = alloca ptr, align 8
  %5 = alloca ptr, align 8
  %6 = alloca i32, align 4
  %7 = alloca i32, align 4
  store ptr %0, ptr %4, align 8
  store ptr %1, ptr %5, align 8
  store i32 %2, ptr %6, align 4
  call void @llvm.lifetime.start.p0(i64 4, ptr %7) #5
  %8 = load ptr, ptr %4, align 8
  %9 = load i32, ptr @hf_dplay_type_0f_id_to, align 4
  %10 = load ptr, ptr %5, align 8
  %11 = load i32, ptr %6, align 4
  %12 = call ptr @proto_tree_add_item(ptr noundef %8, i32 noundef %9, ptr noundef %10, i32 noundef %11, i32 noundef 4, i32 noundef 0)
  %13 = load i32, ptr %6, align 4
  %14 = add i32 %13, 4
  store i32 %14, ptr %6, align 4
  %15 = load ptr, ptr %4, align 8
  %16 = load i32, ptr @hf_dplay_type_0f_id, align 4
  %17 = load ptr, ptr %5, align 8
  %18 = load i32, ptr %6, align 4
  %19 = call ptr @proto_tree_add_item(ptr noundef %15, i32 noundef %16, ptr noundef %17, i32 noundef %18, i32 noundef 4, i32 noundef 0)
  %20 = load i32, ptr %6, align 4
  %21 = add i32 %20, 4
  store i32 %21, ptr %6, align 4
  %22 = load ptr, ptr %5, align 8
  %23 = load i32, ptr %6, align 4
  %24 = call i32 @tvb_get_letohl(ptr noundef %22, i32 noundef %23)
  store i32 %24, ptr %7, align 4
  %25 = load ptr, ptr %4, align 8
  %26 = load i32, ptr @hf_dplay_type_0f_data_size, align 4
  %27 = load ptr, ptr %5, align 8
  %28 = load i32, ptr %6, align 4
  %29 = call ptr @proto_tree_add_item(ptr noundef %25, i32 noundef %26, ptr noundef %27, i32 noundef %28, i32 noundef 4, i32 noundef -2147483648)
  %30 = load i32, ptr %6, align 4
  %31 = add i32 %30, 4
  store i32 %31, ptr %6, align 4
  %32 = load ptr, ptr %4, align 8
  %33 = load i32, ptr @hf_dplay_type_0f_data_offset, align 4
  %34 = load ptr, ptr %5, align 8
  %35 = load i32, ptr %6, align 4
  %36 = call ptr @proto_tree_add_item(ptr noundef %32, i32 noundef %33, ptr noundef %34, i32 noundef %35, i32 noundef 4, i32 noundef -2147483648)
  %37 = load i32, ptr %6, align 4
  %38 = add i32 %37, 4
  store i32 %38, ptr %6, align 4
  %39 = load ptr, ptr %4, align 8
  %40 = load i32, ptr @hf_dplay_type_0f_data, align 4
  %41 = load ptr, ptr %5, align 8
  %42 = load i32, ptr %6, align 4
  %43 = load i32, ptr %7, align 4
  %44 = call ptr @proto_tree_add_item(ptr noundef %39, i32 noundef %40, ptr noundef %41, i32 noundef %42, i32 noundef %43, i32 noundef 0)
  %45 = load i32, ptr %7, align 4
  %46 = load i32, ptr %6, align 4
  %47 = add i32 %46, %45
  store i32 %47, ptr %6, align 4
  %48 = load i32, ptr %6, align 4
  call void @llvm.lifetime.end.p0(i64 4, ptr %7) #5
  ret i32 %48
}