; Function Attrs: null_pointer_is_valid sspstrong uwtable
define internal fastcc void @dissect_type0f_message(ptr noundef %0, ptr noundef %1) unnamed_addr #0 {
  %3 = load i32, ptr @hf_dplay_type_0f_id_to, align 4
  %4 = tail call ptr @proto_tree_add_item(ptr noundef %0, i32 noundef %3, ptr noundef %1, i32 noundef 28, i32 noundef 4, i32 noundef 0)
  %5 = load i32, ptr @hf_dplay_type_0f_id, align 4
  %6 = tail call ptr @proto_tree_add_item(ptr noundef %0, i32 noundef %5, ptr noundef %1, i32 noundef 32, i32 noundef 4, i32 noundef 0)
  %7 = tail call i32 @tvb_get_letohl(ptr noundef %1, i32 noundef 36)
  %8 = load i32, ptr @hf_dplay_type_0f_data_size, align 4
  %9 = tail call ptr @proto_tree_add_item(ptr noundef %0, i32 noundef %8, ptr noundef %1, i32 noundef 36, i32 noundef 4, i32 noundef -2147483648)
  %10 = load i32, ptr @hf_dplay_type_0f_data_offset, align 4
  %11 = tail call ptr @proto_tree_add_item(ptr noundef %0, i32 noundef %10, ptr noundef %1, i32 noundef 40, i32 noundef 4, i32 noundef -2147483648)
  %12 = load i32, ptr @hf_dplay_type_0f_data, align 4
  %13 = tail call ptr @proto_tree_add_item(ptr noundef %0, i32 noundef %12, ptr noundef %1, i32 noundef 44, i32 noundef %7, i32 noundef 0)
  ret void
}